target datalayout = "e-m:e-p270:32:32-p271:32:32-p272:64:64-i64:64-i128:128-f80:128-n8:16:32:64-S128"
target triple = "x86_64-pc-linux-gnu"

%struct.AVCodecContext = type { ptr, i32, i32, ptr, i32, i32, ptr, ptr, ptr, i64, i32, i32, ptr, i32, %struct.AVRational, %struct.AVRational, %struct.AVRational, i32, i32, i32, i32, i32, %struct.AVRational, i32, i32, i32, i32, i32, i32, i32, i32, i32, i32, i32, ptr, ptr, i32, float, float, float, float, float, float, float, float, float, i32, i32, i32, i32, i32, i32, i32, i32, i32, i32, i32, i32, ptr, ptr, ptr, i32, i32, i32, i32, i32, i32, i32, i32, i32, i32, %struct.AVChannelLayout, i32, i32, i32, i32, i32, i32, i32, i32, ptr, i32, i32, i32, float, float, i32, i32, i32, i32, i32, ptr, i64, i64, float, float, i32, i32, ptr, ptr, i32, i32, i32, i32, i32, ptr, ptr, ptr, ptr, i32, i32, [8 x i64], i32, i32, i32, i32, i32, i32, i32, ptr, ptr, i32, i32, i32, i32, i32, i32, i32, i32, i32, i32, ptr, ptr, i32, i32, ptr, ptr, ptr, ptr, i32, i32, i64, i32, i32, i64, ptr, i64, ptr, i32, ptr, i32 }
%struct.AVRational = type { i32, i32 }
%struct.AVChannelLayout = type { i32, i32, %union.anon.0, ptr }
%union.anon.0 = type { i64 }
%struct.GetByteContext = type { ptr, ptr, ptr }
%struct.SGAVideoContext = type { %struct.GetByteContext, i32, i32, i32, i32, i32, i32, i32, i32, i32, i32, i32, i32, i32, i32, i32, i32, i32, [256 x i32], ptr, i32, ptr, i32, [65536 x i8] }
%struct.GetBitContext = type { ptr, ptr, i32, i32, i32 }

; Function Attrs: alwaysinline nounwind willreturn memory(none) uwtable
define internal i32 @av_bswap32(i32 noundef %0) #5 {
  %2 = alloca i32, align 4
  store i32 %0, ptr %2, align 4, !tbaa !49
  %3 = load i32, ptr %2, align 4, !tbaa !49
  %4 = shl i32 %3, 8
  %5 = and i32 %4, 65280
  %6 = load i32, ptr %2, align 4, !tbaa !49
  %7 = lshr i32 %6, 8
  %8 = and i32 %7, 255
  %9 = or i32 %5, %8
  %10 = shl i32 %9, 16
  %11 = load i32, ptr %2, align 4, !tbaa !49
  %12 = lshr i32 %11, 16
  %13 = shl i32 %12, 8
  %14 = and i32 %13, 65280
  %15 = load i32, ptr %2, align 4, !tbaa !49
  %16 = lshr i32 %15, 16
  %17 = lshr i32 %16, 8
  %18 = and i32 %17, 255
  %19 = or i32 %14, %18
  %20 = or i32 %10, %19
  ret i32 %20
}

; Function Attrs: inlinehint nounwind uwtable
define internal i32 @init_get_bits(ptr noundef %0, ptr noundef %1, i32 noundef %2) #9 {
  %4 = alloca ptr, align 8
  %5 = alloca ptr, align 8
  %6 = alloca i32, align 4
  %7 = alloca i32, align 4
  %8 = alloca i32, align 4
  store ptr %0, ptr %4, align 8, !tbaa !126
  store ptr %1, ptr %5, align 8, !tbaa !72
  store i32 %2, ptr %6, align 4, !tbaa !49
  call void @llvm.lifetime.start.p0(i64 4, ptr %7) #10
  call void @llvm.lifetime.start.p0(i64 4, ptr %8) #10
  store i32 0, ptr %8, align 4, !tbaa !49
  %9 = load i32, ptr %6, align 4, !tbaa !49
  %10 = icmp sge i32 %9, 2147483135
  br i1 %10, label %17, label %11

11:                                               ; preds = %3
  %12 = load i32, ptr %6, align 4, !tbaa !49
  %13 = icmp slt i32 %12, 0
  br i1 %13, label %17, label %14

14:                                               ; preds = %11
  %15 = load ptr, ptr %5, align 8, !tbaa !72
  %16 = icmp ne ptr %15, null
  br i1 %16, label %18, label %17

17:                                               ; preds = %14, %11, %3
  store i32 0, ptr %6, align 4, !tbaa !49
  store ptr null, ptr %5, align 8, !tbaa !72
  store i32 -1094995529, ptr %8, align 4, !tbaa !49
  br label %18

18:                                               ; preds = %17, %14
  %19 = load i32, ptr %6, align 4, !tbaa !49
  %20 = add nsw i32 %19, 7
  %21 = ashr i32 %20, 3
  store i32 %21, ptr %7, align 4, !tbaa !49
  %22 = load ptr, ptr %5, align 8, !tbaa !72
  %23 = load ptr, ptr %4, align 8, !tbaa !126
  %24 = getelementptr inbounds nuw %struct.GetBitContext, ptr %23, i32 0, i32 0
  store ptr %22, ptr %24, align 8, !tbaa !130
  %25 = load i32, ptr %6, align 4, !tbaa !49
  %26 = load ptr, ptr %4, align 8, !tbaa !126
  %27 = getelementptr inbounds nuw %struct.GetBitContext, ptr %26, i32 0, i32 3
  store i32 %25, ptr %27, align 4, !tbaa !132
  %28 = load i32, ptr %6, align 4, !tbaa !49
  %29 = add nsw i32 %28, 8
  %30 = load ptr, ptr %4, align 8, !tbaa !126
  %31 = getelementptr inbounds nuw %struct.GetBitContext, ptr %30, i32 0, i32 4
  store i32 %29, ptr %31, align 8, !tbaa !131
  %32 = load ptr, ptr %5, align 8, !tbaa !72
  %33 = load i32, ptr %7, align 4, !tbaa !49
  %34 = sext i32 %33 to i64
  %35 = getelementptr inbounds i8, ptr %32, i64 %34
  %36 = load ptr, ptr %4, align 8, !tbaa !126
  %37 = getelementptr inbounds nuw %struct.GetBitContext, ptr %36, i32 0, i32 1
  store ptr %35, ptr %37, align 8, !tbaa !133
  %38 = load ptr, ptr %4, align 8, !tbaa !126
  %39 = getelementptr inbounds nuw %struct.GetBitContext, ptr %38, i32 0, i32 2
  store i32 0, ptr %39, align 8, !tbaa !128
  %40 = load i32, ptr %8, align 4, !tbaa !49
  call void @llvm.lifetime.end.p0(i64 4, ptr %8) #10
  call void @llvm.lifetime.end.p0(i64 4, ptr %7) #10
  ret i32 %40
}

; Function Attrs: alwaysinline nounwind uwtable
define internal i32 @bytestream2_tell(ptr noundef %0) #4 {
  %2 = alloca ptr, align 8
  store ptr %0, ptr %2, align 8, !tbaa !37
  %3 = load ptr, ptr %2, align 8, !tbaa !37
  %4 = getelementptr inbounds nuw %struct.GetByteContext, ptr %3, i32 0, i32 0
  %5 = load ptr, ptr %4, align 8, !tbaa !61
  %6 = load ptr, ptr %2, align 8, !tbaa !37
  %7 = getelementptr inbounds nuw %struct.GetByteContext, ptr %6, i32 0, i32 2
  %8 = load ptr, ptr %7, align 8, !tbaa !81
  %9 = ptrtoint ptr %5 to i64
  %10 = ptrtoint ptr %8 to i64
  %11 = sub i64 %9, %10
  %12 = trunc i64 %11 to i32
  ret i32 %12
}

; Function Attrs: alwaysinline nounwind willreturn memory(none) uwtable
define internal i32 @av_clip_c(i32 noundef %0, i32 noundef %1, i32 noundef %2) #5 {
  %4 = alloca i32, align 4
  %5 = alloca i32, align 4
  %6 = alloca i32, align 4
  %7 = alloca i32, align 4
  store i32 %0, ptr %5, align 4, !tbaa !49
  store i32 %1, ptr %6, align 4, !tbaa !49
  store i32 %2, ptr %7, align 4, !tbaa !49
  %8 = load i32, ptr %5, align 4, !tbaa !49
  %9 = load i32, ptr %6, align 4, !tbaa !49
  %10 = icmp slt i32 %8, %9
  br i1 %10, label %11, label %13

11:                                               ; preds = %3
  %12 = load i32, ptr %6, align 4, !tbaa !49
  store i32 %12, ptr %4, align 4
  br label %21

13:                                               ; preds = %3
  %14 = load i32, ptr %5, align 4, !tbaa !49
  %15 = load i32, ptr %7, align 4, !tbaa !49
  %16 = icmp sgt i32 %14, %15
  br i1 %16, label %17, label %19

17:                                               ; preds = %13
  %18 = load i32, ptr %7, align 4, !tbaa !49
  store i32 %18, ptr %4, align 4
  br label %21

19:                                               ; preds = %13
  %20 = load i32, ptr %5, align 4, !tbaa !49
  store i32 %20, ptr %4, align 4
  br label %21

21:                                               ; preds = %19, %17, %11
  %22 = load i32, ptr %4, align 4
  ret i32 %22
}

; Function Attrs: inlinehint nounwind uwtable
define internal i32 @get_bits(ptr noundef %0, i32 noundef %1) #9 {
  %3 = alloca ptr, align 8
  %4 = alloca i32, align 4
  %5 = alloca i32, align 4
  %6 = alloca i32, align 4
  %7 = alloca i32, align 4
  %8 = alloca i32, align 4
  store ptr %0, ptr %3, align 8, !tbaa !126
  store i32 %1, ptr %4, align 4, !tbaa !49
  call void @llvm.lifetime.start.p0(i64 4, ptr %5) #10
  call void @llvm.lifetime.start.p0(i64 4, ptr %6) #10
  %9 = load ptr, ptr %3, align 8, !tbaa !126
  %10 = getelementptr inbounds nuw %struct.GetBitContext, ptr %9, i32 0, i32 2
  %11 = load i32, ptr %10, align 8, !tbaa !128
  store i32 %11, ptr %6, align 4, !tbaa !49
  call void @llvm.lifetime.start.p0(i64 4, ptr %7) #10
  call void @llvm.lifetime.start.p0(i64 4, ptr %8) #10
  %12 = load ptr, ptr %3, align 8, !tbaa !126
  %13 = getelementptr inbounds nuw %struct.GetBitContext, ptr %12, i32 0, i32 4
  %14 = load i32, ptr %13, align 8, !tbaa !131
  store i32 %14, ptr %8, align 4, !tbaa !49
  %15 = load ptr, ptr %3, align 8, !tbaa !126
  %16 = getelementptr inbounds nuw %struct.GetBitContext, ptr %15, i32 0, i32 0
  %17 = load ptr, ptr %16, align 8, !tbaa !130
  %18 = load i32, ptr %6, align 4, !tbaa !49
  %19 = lshr i32 %18, 3
  %20 = zext i32 %19 to i64
  %21 = getelementptr inbounds nuw i8, ptr %17, i64 %20
  %22 = load i32, ptr %21, align 1, !tbaa !42
  %23 = call i32 @av_bswap32(i32 noundef %22) #11
  %24 = load i32, ptr %6, align 4, !tbaa !49
  %25 = and i32 %24, 7
  %26 = shl i32 %23, %25
  %27 = lshr i32 %26, 0
  store i32 %27, ptr %7, align 4, !tbaa !49
  %28 = load i32, ptr %7, align 4, !tbaa !49
  %29 = load i32, ptr %4, align 4, !tbaa !49
  %30 = sub nsw i32 32, %29
  %31 = lshr i32 %28, %30
  store i32 %31, ptr %5, align 4, !tbaa !49
  %32 = load i32, ptr %8, align 4, !tbaa !49
  %33 = load i32, ptr %6, align 4, !tbaa !49
  %34 = load i32, ptr %4, align 4, !tbaa !49
  %35 = add i32 %33, %34
  %36 = icmp ugt i32 %32, %35
  br i1 %36, label %37, label %41

37:                                               ; preds = %2
  %38 = load i32, ptr %6, align 4, !tbaa !49
  %39 = load i32, ptr %4, align 4, !tbaa !49
  %40 = add i32 %38, %39
  br label %43

41:                                               ; preds = %2
  %42 = load i32, ptr %8, align 4, !tbaa !49
  br label %43

43:                                               ; preds = %41, %37
  %44 = phi i32 [ %40, %37 ], [ %42, %41 ]
  store i32 %44, ptr %6, align 4, !tbaa !49
  %45 = load i32, ptr %6, align 4, !tbaa !49
  %46 = load ptr, ptr %3, align 8, !tbaa !126
  %47 = getelementptr inbounds nuw %struct.GetBitContext, ptr %46, i32 0, i32 2
  store i32 %45, ptr %47, align 8, !tbaa !128
  %48 = load i32, ptr %5, align 4, !tbaa !49
  call void @llvm.lifetime.end.p0(i64 4, ptr %8) #10
  call void @llvm.lifetime.end.p0(i64 4, ptr %7) #10
  call void @llvm.lifetime.end.p0(i64 4, ptr %6) #10
  call void @llvm.lifetime.end.p0(i64 4, ptr %5) #10
  ret i32 %48
}

; Function Attrs: inlinehint nounwind uwtable
define internal i32 @init_get_bits8(ptr noundef %0, ptr noundef %1, i32 noundef %2) #9 {
  %4 = alloca ptr, align 8
  %5 = alloca ptr, align 8
  %6 = alloca i32, align 4
  store ptr %0, ptr %4, align 8, !tbaa !126
  store ptr %1, ptr %5, align 8, !tbaa !72
  store i32 %2, ptr %6, align 4, !tbaa !49
  %7 = load i32, ptr %6, align 4, !tbaa !49
  %8 = icmp sgt i32 %7, 268435455
  br i1 %8, label %12, label %9

9:                                                ; preds = %3
  %10 = load i32, ptr %6, align 4, !tbaa !49
  %11 = icmp slt i32 %10, 0
  br i1 %11, label %12, label %13

12:                                               ; preds = %9, %3
  store i32 -1, ptr %6, align 4, !tbaa !49
  br label %13

13:                                               ; preds = %12, %9
  %14 = load ptr, ptr %4, align 8, !tbaa !126
  %15 = load ptr, ptr %5, align 8, !tbaa !72
  %16 = load i32, ptr %6, align 4, !tbaa !49
  %17 = mul nsw i32 %16, 8
  %18 = call i32 @init_get_bits(ptr noundef %14, ptr noundef %15, i32 noundef %17)
  ret i32 %18
}

; Function Attrs: alwaysinline nounwind uwtable
define internal i32 @bytestream2_get_bytes_left(ptr noundef %0) #4 {
  %2 = alloca ptr, align 8
  store ptr %0, ptr %2, align 8, !tbaa !37
  %3 = load ptr, ptr %2, align 8, !tbaa !37
  %4 = getelementptr inbounds nuw %struct.GetByteContext, ptr %3, i32 0, i32 1
  %5 = load ptr, ptr %4, align 8, !tbaa !82
  %6 = load ptr, ptr %2, align 8, !tbaa !37
  %7 = getelementptr inbounds nuw %struct.GetByteContext, ptr %6, i32 0, i32 0
  %8 = load ptr, ptr %7, align 8, !tbaa !61
  %9 = ptrtoint ptr %5 to i64
  %10 = ptrtoint ptr %8 to i64
  %11 = sub i64 %9, %10
  %12 = trunc i64 %11 to i32
  ret i32 %12
}

; Function Attrs: alwaysinline nounwind uwtable
define internal i32 @bytestream2_seek(ptr noundef %0, i32 noundef %1, i32 noundef %2) #4 {
  %4 = alloca i32, align 4
  %5 = alloca ptr, align 8
  %6 = alloca i32, align 4
  %7 = alloca i32, align 4
  store ptr %0, ptr %5, align 8, !tbaa !37
  store i32 %1, ptr %6, align 4, !tbaa !49
  store i32 %2, ptr %7, align 4, !tbaa !49
  %8 = load i32, ptr %7, align 4, !tbaa !49
  switch i32 %8, label %82 [
    i32 1, label %9
    i32 2, label %39
    i32 0, label %61
  ]

9:                                                ; preds = %3
  %10 = load i32, ptr %6, align 4, !tbaa !49
  %11 = load ptr, ptr %5, align 8, !tbaa !37
  %12 = getelementptr inbounds nuw %struct.GetByteContext, ptr %11, i32 0, i32 0
  %13 = load ptr, ptr %12, align 8, !tbaa !61
  %14 = load ptr, ptr %5, align 8, !tbaa !37
  %15 = getelementptr inbounds nuw %struct.GetByteContext, ptr %14, i32 0, i32 2
  %16 = load ptr, ptr %15, align 8, !tbaa !81
  %17 = ptrtoint ptr %13 to i64
  %18 = ptrtoint ptr %16 to i64
  %19 = sub i64 %17, %18
  %20 = sub nsw i64 0, %19
  %21 = trunc i64 %20 to i32
  %22 = load ptr, ptr %5, align 8, !tbaa !37
  %23 = getelementptr inbounds nuw %struct.GetByteContext, ptr %22, i32 0, i32 1
  %24 = load ptr, ptr %23, align 8, !tbaa !82
  %25 = load ptr, ptr %5, align 8, !tbaa !37
  %26 = getelementptr inbounds nuw %struct.GetByteContext, ptr %25, i32 0, i32 0
  %27 = load ptr, ptr %26, align 8, !tbaa !61
  %28 = ptrtoint ptr %24 to i64
  %29 = ptrtoint ptr %27 to i64
  %30 = sub i64 %28, %29
  %31 = trunc i64 %30 to i32
  %32 = call i32 @av_clip_c(i32 noundef %10, i32 noundef %21, i32 noundef %31) #11
  store i32 %32, ptr %6, align 4, !tbaa !49
  %33 = load i32, ptr %6, align 4, !tbaa !49
  %34 = load ptr, ptr %5, align 8, !tbaa !37
  %35 = getelementptr inbounds nuw %struct.GetByteContext, ptr %34, i32 0, i32 0
  %36 = load ptr, ptr %35, align 8, !tbaa !61
  %37 = sext i32 %33 to i64
  %38 = getelementptr inbounds i8, ptr %36, i64 %37
  store ptr %38, ptr %35, align 8, !tbaa !61
  br label %83

39:                                               ; preds = %3
  %40 = load i32, ptr %6, align 4, !tbaa !49
  %41 = load ptr, ptr %5, align 8, !tbaa !37
  %42 = getelementptr inbounds nuw %struct.GetByteContext, ptr %41, i32 0, i32 1
  %43 = load ptr, ptr %42, align 8, !tbaa !82
  %44 = load ptr, ptr %5, align 8, !tbaa !37
  %45 = getelementptr inbounds nuw %struct.GetByteContext, ptr %44, i32 0, i32 2
  %46 = load ptr, ptr %45, align 8, !tbaa !81
  %47 = ptrtoint ptr %43 to i64
  %48 = ptrtoint ptr %46 to i64
  %49 = sub i64 %47, %48
  %50 = sub nsw i64 0, %49
  %51 = trunc i64 %50 to i32
  %52 = call i32 @av_clip_c(i32 noundef %40, i32 noundef %51, i32 noundef 0) #11
  store i32 %52, ptr %6, align 4, !tbaa !49
  %53 = load ptr, ptr %5, align 8, !tbaa !37
  %54 = getelementptr inbounds nuw %struct.GetByteContext, ptr %53, i32 0, i32 1
  %55 = load ptr, ptr %54, align 8, !tbaa !82
  %56 = load i32, ptr %6, align 4, !tbaa !49
  %57 = sext i32 %56 to i64
  %58 = getelementptr inbounds i8, ptr %55, i64 %57
  %59 = load ptr, ptr %5, align 8, !tbaa !37
  %60 = getelementptr inbounds nuw %struct.GetByteContext, ptr %59, i32 0, i32 0
  store ptr %58, ptr %60, align 8, !tbaa !61
  br label %83

61:                                               ; preds = %3
  %62 = load i32, ptr %6, align 4, !tbaa !49
  %63 = load ptr, ptr %5, align 8, !tbaa !37
  %64 = getelementptr inbounds nuw %struct.GetByteContext, ptr %63, i32 0, i32 1
  %65 = load ptr, ptr %64, align 8, !tbaa !82
  %66 = load ptr, ptr %5, align 8, !tbaa !37
  %67 = getelementptr inbounds nuw %struct.GetByteContext, ptr %66, i32 0, i32 2
  %68 = load ptr, ptr %67, align 8, !tbaa !81
  %69 = ptrtoint ptr %65 to i64
  %70 = ptrtoint ptr %68 to i64
  %71 = sub i64 %69, %70
  %72 = trunc i64 %71 to i32
  %73 = call i32 @av_clip_c(i32 noundef %62, i32 noundef 0, i32 noundef %72) #11
  store i32 %73, ptr %6, align 4, !tbaa !49
  %74 = load ptr, ptr %5, align 8, !tbaa !37
  %75 = getelementptr inbounds nuw %struct.GetByteContext, ptr %74, i32 0, i32 2
  %76 = load ptr, ptr %75, align 8, !tbaa !81
  %77 = load i32, ptr %6, align 4, !tbaa !49
  %78 = sext i32 %77 to i64
  %79 = getelementptr inbounds i8, ptr %76, i64 %78
  %80 = load ptr, ptr %5, align 8, !tbaa !37
  %81 = getelementptr inbounds nuw %struct.GetByteContext, ptr %80, i32 0, i32 0
  store ptr %79, ptr %81, align 8, !tbaa !61
  br label %83

82:                                               ; preds = %3
  store i32 -22, ptr %4, align 4
  br label %86

83:                                               ; preds = %61, %39, %9
  %84 = load ptr, ptr %5, align 8, !tbaa !37
  %85 = call i32 @bytestream2_tell(ptr noundef %84)
  store i32 %85, ptr %4, align 4
  br label %86

86:                                               ; preds = %83, %82
  %87 = load i32, ptr %4, align 4
  ret i32 %87
}

; Function Attrs: nounwind uwtable
define internal i32 @decode_palmapdata(ptr noundef %0) #1 {
  %2 = alloca i32, align 4
  %3 = alloca ptr, align 8
  %4 = alloca ptr, align 8
  %5 = alloca i32, align 4
  %6 = alloca ptr, align 8
  %7 = alloca %struct.GetBitContext, align 8
  %8 = alloca i32, align 4
  %9 = alloca i32, align 4
  %10 = alloca i32, align 4
  %11 = alloca ptr, align 8
  %12 = alloca i32, align 4
  store ptr %0, ptr %3, align 8, !tbaa !4
  call void @llvm.lifetime.start.p0(i64 8, ptr %4) #10
  %13 = load ptr, ptr %3, align 8, !tbaa !4
  %14 = getelementptr inbounds nuw %struct.AVCodecContext, ptr %13, i32 0, i32 6
  %15 = load ptr, ptr %14, align 8, !tbaa !34
  store ptr %15, ptr %4, align 8, !tbaa !35
  call void @llvm.lifetime.start.p0(i64 4, ptr %5) #10
  %16 = load ptr, ptr %4, align 8, !tbaa !35
  %17 = getelementptr inbounds nuw %struct.SGAVideoContext, ptr %16, i32 0, i32 11
  %18 = load i32, ptr %17, align 8, !tbaa !46
  %19 = add nsw i32 %18, 1
  %20 = sdiv i32 %19, 2
  store i32 %20, ptr %5, align 4, !tbaa !49
  call void @llvm.lifetime.start.p0(i64 8, ptr %6) #10
  %21 = load ptr, ptr %4, align 8, !tbaa !35
  %22 = getelementptr inbounds nuw %struct.SGAVideoContext, ptr %21, i32 0, i32 0
  store ptr %22, ptr %6, align 8, !tbaa !37
  call void @llvm.lifetime.start.p0(i64 32, ptr %7) #10
  call void @llvm.lifetime.start.p0(i64 4, ptr %8) #10
  %23 = load ptr, ptr %6, align 8, !tbaa !37
  %24 = load ptr, ptr %4, align 8, !tbaa !35
  %25 = getelementptr inbounds nuw %struct.SGAVideoContext, ptr %24, i32 0, i32 8
  %26 = load i32, ptr %25, align 4, !tbaa !67
  %27 = call i32 @bytestream2_seek(ptr noundef %23, i32 noundef %26, i32 noundef 0)
  %28 = load ptr, ptr %6, align 8, !tbaa !37
  %29 = call i32 @bytestream2_get_bytes_left(ptr noundef %28)
  %30 = load ptr, ptr %4, align 8, !tbaa !35
  %31 = getelementptr inbounds nuw %struct.SGAVideoContext, ptr %30, i32 0, i32 9
  %32 = load i32, ptr %31, align 8, !tbaa !68
  %33 = icmp slt i32 %29, %32
  br i1 %33, label %34, label %35

34:                                               ; preds = %1
  store i32 -1094995529, ptr %2, align 4
  store i32 1, ptr %9, align 4
  br label %90

35:                                               ; preds = %1
  %36 = load ptr, ptr %6, align 8, !tbaa !37
  %37 = getelementptr inbounds nuw %struct.GetByteContext, ptr %36, i32 0, i32 0
  %38 = load ptr, ptr %37, align 8, !tbaa !61
  %39 = load ptr, ptr %4, align 8, !tbaa !35
  %40 = getelementptr inbounds nuw %struct.SGAVideoContext, ptr %39, i32 0, i32 9
  %41 = load i32, ptr %40, align 8, !tbaa !68
  %42 = call i32 @init_get_bits8(ptr noundef %7, ptr noundef %38, i32 noundef %41)
  store i32 %42, ptr %8, align 4, !tbaa !49
  call void @llvm.lifetime.start.p0(i64 4, ptr %10) #10
  store i32 0, ptr %10, align 4, !tbaa !49
  br label %43

43:                                               ; preds = %86, %35
  %44 = load i32, ptr %10, align 4, !tbaa !49
  %45 = load ptr, ptr %4, align 8, !tbaa !35
  %46 = getelementptr inbounds nuw %struct.SGAVideoContext, ptr %45, i32 0, i32 14
  %47 = load i32, ptr %46, align 4, !tbaa !48
  %48 = icmp slt i32 %44, %47
  br i1 %48, label %50, label %49

49:                                               ; preds = %43
  store i32 2, ptr %9, align 4
  call void @llvm.lifetime.end.p0(i64 4, ptr %10) #10
  br label %89

50:                                               ; preds = %43
  call void @llvm.lifetime.start.p0(i64 8, ptr %11) #10
  %51 = load ptr, ptr %4, align 8, !tbaa !35
  %52 = getelementptr inbounds nuw %struct.SGAVideoContext, ptr %51, i32 0, i32 21
  %53 = load ptr, ptr %52, align 8, !tbaa !53
  %54 = load i32, ptr %10, align 4, !tbaa !49
  %55 = load ptr, ptr %4, align 8, !tbaa !35
  %56 = getelementptr inbounds nuw %struct.SGAVideoContext, ptr %55, i32 0, i32 13
  %57 = load i32, ptr %56, align 8, !tbaa !47
  %58 = mul nsw i32 %54, %57
  %59 = sext i32 %58 to i64
  %60 = getelementptr inbounds i8, ptr %53, i64 %59
  store ptr %60, ptr %11, align 8, !tbaa !72
  call void @llvm.lifetime.start.p0(i64 4, ptr %12) #10
  store i32 0, ptr %12, align 4, !tbaa !49
  br label %61

61:                                               ; preds = %76, %50
  %62 = load i32, ptr %12, align 4, !tbaa !49
  %63 = load ptr, ptr %4, align 8, !tbaa !35
  %64 = getelementptr inbounds nuw %struct.SGAVideoContext, ptr %63, i32 0, i32 13
  %65 = load i32, ptr %64, align 8, !tbaa !47
  %66 = icmp slt i32 %62, %65
  br i1 %66, label %68, label %67

67:                                               ; preds = %61
  store i32 5, ptr %9, align 4
  call void @llvm.lifetime.end.p0(i64 4, ptr %12) #10
  br label %79

68:                                               ; preds = %61
  %69 = load i32, ptr %5, align 4, !tbaa !49
  %70 = call i32 @get_bits(ptr noundef %7, i32 noundef %69)
  %71 = trunc i32 %70 to i8
  %72 = load ptr, ptr %11, align 8, !tbaa !72
  %73 = load i32, ptr %12, align 4, !tbaa !49
  %74 = sext i32 %73 to i64
  %75 = getelementptr inbounds i8, ptr %72, i64 %74
  store i8 %71, ptr %75, align 1, !tbaa !42
  br label %76

76:                                               ; preds = %68
  %77 = load i32, ptr %12, align 4, !tbaa !49
  %78 = add nsw i32 %77, 1
  store i32 %78, ptr %12, align 4, !tbaa !49
  br label %61, !llvm.loop !102

79:                                               ; preds = %67
  %80 = load ptr, ptr %4, align 8, !tbaa !35
  %81 = getelementptr inbounds nuw %struct.SGAVideoContext, ptr %80, i32 0, i32 13
  %82 = load i32, ptr %81, align 8, !tbaa !47
  %83 = load ptr, ptr %11, align 8, !tbaa !72
  %84 = sext i32 %82 to i64
  %85 = getelementptr inbounds i8, ptr %83, i64 %84
  store ptr %85, ptr %11, align 8, !tbaa !72
  call void @llvm.lifetime.end.p0(i64 8, ptr %11) #10
  br label %86

86:                                               ; preds = %79
  %87 = load i32, ptr %10, align 4, !tbaa !49
  %88 = add nsw i32 %87, 1
  store i32 %88, ptr %10, align 4, !tbaa !49
  br label %43, !llvm.loop !103

89:                                               ; preds = %49
  store i32 0, ptr %2, align 4
  store i32 1, ptr %9, align 4
  br label %90

90:                                               ; preds = %89, %34
  call void @llvm.lifetime.end.p0(i64 4, ptr %8) #10
  call void @llvm.lifetime.end.p0(i64 32, ptr %7) #10
  call void @llvm.lifetime.end.p0(i64 8, ptr %6) #10
  call void @llvm.lifetime.end.p0(i64 4, ptr %5) #10
  call void @llvm.lifetime.end.p0(i64 8, ptr %4) #10
  %91 = load i32, ptr %2, align 4
  ret i32 %91
}