; Function Attrs: nofree norecurse nosync nounwind memory(readwrite, inaccessiblemem: none) uwtable
define internal fastcc range(i32 -1094995529, 1) i32 @decode_palmapdata(ptr captures(none) initializes((0, 8)) %.32.val) unnamed_addr #7 {
  %1 = getelementptr inbounds nuw i8, ptr %.32.val, i64 64
  %2 = load i32, ptr %1, align 8, !tbaa !35
  %3 = add nsw i32 %2, 1
  %4 = sdiv i32 %3, 2
  %5 = getelementptr inbounds nuw i8, ptr %.32.val, i64 52
  %6 = load i32, ptr %5, align 4, !tbaa !59
  %7 = getelementptr inbounds nuw i8, ptr %.32.val, i64 8
  %8 = load ptr, ptr %7, align 8, !tbaa !43
  %9 = getelementptr inbounds nuw i8, ptr %.32.val, i64 16
  %10 = load ptr, ptr %9, align 8, !tbaa !42
  %11 = ptrtoint ptr %8 to i64
  %12 = ptrtoint ptr %10 to i64
  %13 = sub i64 %11, %12
  %14 = trunc i64 %13 to i32
  %15 = icmp slt i32 %6, 0
  %..i = tail call i32 @llvm.smin.i32(i32 %6, i32 %14)
  %.0.i = select i1 %15, i32 0, i32 %..i
  %16 = sext i32 %.0.i to i64
  %17 = getelementptr inbounds i8, ptr %10, i64 %16
  store ptr %17, ptr %.32.val, align 8, !tbaa !44
  %18 = ptrtoint ptr %17 to i64
  %19 = sub i64 %11, %18
  %20 = trunc i64 %19 to i32
  %21 = getelementptr inbounds nuw i8, ptr %.32.val, i64 56
  %22 = load i32, ptr %21, align 8, !tbaa !60
  %23 = icmp sgt i32 %22, %20
  br i1 %23, label %.loopexit, label %24

24:                                               ; preds = %0
  %or.cond.i = icmp ugt i32 %22, 268435455
  %25 = shl nuw nsw i32 %22, 3
  %26 = select i1 %or.cond.i, i32 -8, i32 %25
  %or.cond.i.i = icmp ult i32 %26, 2147483135
  %27 = icmp ne ptr %10, null
  %or.cond3.i.i = and i1 %27, %or.cond.i.i
  %28 = add nuw nsw i32 %26, 8
  %29 = select i1 %or.cond3.i.i, i32 %28, i32 8
  %30 = getelementptr inbounds nuw i8, ptr %.32.val, i64 76
  %31 = load i32, ptr %30, align 4, !tbaa !37
  %32 = icmp sgt i32 %31, 0
  br i1 %32, label %.lr.ph6, label %.loopexit

.lr.ph6:                                          ; preds = %24
  %33 = getelementptr inbounds nuw i8, ptr %.32.val, i64 1136
  %34 = getelementptr inbounds nuw i8, ptr %.32.val, i64 72
  %35 = sub nsw i32 32, %4
  %36 = load i32, ptr %34, align 8, !tbaa !36
  %37 = icmp sgt i32 %36, 0
  br i1 %37, label %.lr.ph6.split, label %.loopexit

.lr.ph6.split:                                    ; preds = %.lr.ph6, %._crit_edge
  %38 = phi i32 [ %45, %._crit_edge ], [ %31, %.lr.ph6 ]
  %39 = phi i32 [ %46, %._crit_edge ], [ %36, %.lr.ph6 ]
  %.0234 = phi i32 [ %47, %._crit_edge ], [ 0, %.lr.ph6 ]
  %.sroa.5.03 = phi i32 [ %.sroa.5.1.lcssa, %._crit_edge ], [ 0, %.lr.ph6 ]
  %40 = load ptr, ptr %33, align 8, !tbaa !41
  %41 = mul nsw i32 %39, %.0234
  %42 = sext i32 %41 to i64
  %43 = getelementptr inbounds i8, ptr %40, i64 %42
  %44 = icmp sgt i32 %39, 0
  br i1 %44, label %.lr.ph, label %._crit_edge

._crit_edge.loopexit:                             ; preds = %.lr.ph
  %.pre = load i32, ptr %30, align 4, !tbaa !37
  br label %._crit_edge

._crit_edge:                                      ; preds = %._crit_edge.loopexit, %.lr.ph6.split
  %45 = phi i32 [ %38, %.lr.ph6.split ], [ %.pre, %._crit_edge.loopexit ]
  %46 = phi i32 [ %39, %.lr.ph6.split ], [ %61, %._crit_edge.loopexit ]
  %.sroa.5.1.lcssa = phi i32 [ %.sroa.5.03, %.lr.ph6.split ], [ %58, %._crit_edge.loopexit ]
  %47 = add nuw nsw i32 %.0234, 1
  %48 = icmp slt i32 %47, %45
  br i1 %48, label %.lr.ph6.split, label %.loopexit, !llvm.loop !89

.lr.ph:                                           ; preds = %.lr.ph6.split, %.lr.ph
  %indvars.iv = phi i64 [ %indvars.iv.next, %.lr.ph ], [ 0, %.lr.ph6.split ]
  %.sroa.5.11 = phi i32 [ %58, %.lr.ph ], [ %.sroa.5.03, %.lr.ph6.split ]
  %49 = lshr i32 %.sroa.5.11, 3
  %50 = zext nneg i32 %49 to i64
  %51 = getelementptr inbounds nuw i8, ptr %17, i64 %50
  %52 = load i32, ptr %51, align 1, !tbaa !31
  %53 = tail call i32 @llvm.bswap.i32(i32 %52)
  %54 = and i32 %.sroa.5.11, 7
  %55 = shl i32 %53, %54
  %56 = lshr i32 %55, %35
  %57 = add i32 %.sroa.5.11, %4
  %58 = tail call i32 @llvm.umin.i32(i32 %29, i32 %57)
  %59 = trunc i32 %56 to i8
  %60 = getelementptr inbounds nuw i8, ptr %43, i64 %indvars.iv
  store i8 %59, ptr %60, align 1, !tbaa !31
  %indvars.iv.next = add nuw nsw i64 %indvars.iv, 1
  %61 = load i32, ptr %34, align 8, !tbaa !36
  %62 = sext i32 %61 to i64
  %63 = icmp slt i64 %indvars.iv.next, %62
  br i1 %63, label %.lr.ph, label %._crit_edge.loopexit, !llvm.loop !91

.loopexit:                                        ; preds = %._crit_edge, %.lr.ph6, %24, %0
  %.024 = phi i32 [ -1094995529, %0 ], [ 0, %24 ], [ 0, %.lr.ph6 ], [ 0, %._crit_edge ]
  ret i32 %.024
}